target datalayout = "e-m:e-p270:32:32-p271:32:32-p272:64:64-i64:64-i128:128-f80:128-n8:16:32:64-S128"
target triple = "x86_64-pc-linux-gnu"

%struct.netmon_hdr = type { i8, i8, i16, i16, i16, i16, i16, i16, i16, i16, i16, i32, i32, i32, i32, i32, i32, i32, i32, i32, i32 }
%struct.tm = type { i32, i32, i32, i32, i32, i32, i32, i32, i32, i64, ptr }
%struct.nstime_t = type { i64, i32 }
%struct.wtap_dumper = type { ptr, i32, i32, i32, i32, i8, i64, ptr, ptr, ptr, ptr, ptr, ptr, ptr, ptr, ptr, ptr, ptr, ptr, ptr, i32, i32, i32 }
%struct.netmon_dump_t = type { i8, i8, %struct.nstime_t, i32, ptr, i32, i32, i8 }

@netmon_1_x_magic = internal constant [4 x i8] c"RTSS", align 1
@netmon_2_x_magic = internal constant [4 x i8] c"GMBU", align 1
@wtap_encap = internal constant [14 x i32] [i32 -1, i32 1, i32 2, i32 -1, i32 -1, i32 3, i32 3, i32 -1, i32 -1, i32 -1, i32 -1, i32 -1, i32 -1, i32 4], align 16

; Function Attrs: alwaysinline nounwind
define internal ptr @memset.inline(ptr %0, i32 %1, i64 %2) #10 {
  %4 = alloca ptr, align 8
  %5 = alloca i32, align 4
  %6 = alloca i64, align 8
  store ptr %0, ptr %4, align 8
  store i32 %1, ptr %5, align 4
  store i64 %2, ptr %6, align 8
  %7 = load ptr, ptr %4, align 8
  %8 = load i32, ptr %5, align 4
  %9 = load i64, ptr %6, align 8
  %10 = load ptr, ptr %4, align 8
  %11 = call i64 @llvm.objectsize.i64.p0(ptr %10, i1 false, i1 true, i1 true)
  %12 = call ptr @__memset_chk(ptr noundef %7, i32 noundef %8, i64 noundef %9, i64 noundef %11) #13
  ret ptr %12
}

; Function Attrs: null_pointer_is_valid sspstrong uwtable
define internal zeroext i1 @netmon_dump_finish(ptr noundef %0, ptr noundef %1, ptr noundef %2) #0 {
  %4 = alloca i1, align 1
  %5 = alloca ptr, align 8
  %6 = alloca ptr, align 8
  %7 = alloca ptr, align 8
  %8 = alloca ptr, align 8
  %9 = alloca i64, align 8
  %10 = alloca %struct.netmon_hdr, align 4
  %11 = alloca ptr, align 8
  %12 = alloca i64, align 8
  %13 = alloca ptr, align 8
  %14 = alloca i64, align 8
  %15 = alloca i32, align 4
  store ptr %0, ptr %5, align 8
  store ptr %1, ptr %6, align 8
  store ptr %2, ptr %7, align 8
  call void @llvm.lifetime.start.p0(i64 8, ptr %8) #13
  %16 = load ptr, ptr %5, align 8
  %17 = getelementptr inbounds nuw %struct.wtap_dumper, ptr %16, i32 0, i32 7
  %18 = load ptr, ptr %17, align 8
  store ptr %18, ptr %8, align 8
  call void @llvm.lifetime.start.p0(i64 8, ptr %9) #13
  call void @llvm.lifetime.start.p0(i64 60, ptr %10) #13
  call void @llvm.lifetime.start.p0(i64 8, ptr %11) #13
  call void @llvm.lifetime.start.p0(i64 8, ptr %12) #13
  call void @llvm.lifetime.start.p0(i64 8, ptr %13) #13
  call void @llvm.lifetime.start.p0(i64 8, ptr %14) #13
  %19 = load ptr, ptr %8, align 8
  %20 = getelementptr inbounds nuw %struct.netmon_dump_t, ptr %19, i32 0, i32 5
  %21 = load i32, ptr %20, align 8
  %22 = zext i32 %21 to i64
  %23 = mul i64 %22, 4
  store i64 %23, ptr %9, align 8
  %24 = load ptr, ptr %5, align 8
  %25 = load ptr, ptr %8, align 8
  %26 = getelementptr inbounds nuw %struct.netmon_dump_t, ptr %25, i32 0, i32 4
  %27 = load ptr, ptr %26, align 8
  %28 = load i64, ptr %9, align 8
  %29 = load ptr, ptr %6, align 8
  %30 = call zeroext i1 @wtap_dump_file_write(ptr noundef %24, ptr noundef %27, i64 noundef %28, ptr noundef %29)
  br i1 %30, label %32, label %31

31:                                               ; preds = %3
  store i1 false, ptr %4, align 1
  store i32 1, ptr %15, align 4
  br label %162

32:                                               ; preds = %3
  %33 = load ptr, ptr %5, align 8
  %34 = load ptr, ptr %6, align 8
  %35 = call i64 @wtap_dump_file_seek(ptr noundef %33, i64 noundef 0, i32 noundef 0, ptr noundef %34)
  %36 = icmp eq i64 %35, -1
  br i1 %36, label %37, label %38

37:                                               ; preds = %32
  store i1 false, ptr %4, align 1
  store i32 1, ptr %15, align 4
  br label %162

38:                                               ; preds = %32
  %39 = load ptr, ptr %5, align 8
  %40 = getelementptr inbounds nuw %struct.wtap_dumper, ptr %39, i32 0, i32 6
  %41 = load i64, ptr %40, align 8
  store i64 %41, ptr %14, align 8
  %42 = call ptr @memset.inline(ptr noundef %10, i32 noundef 0, i64 noundef 60) #13
  %43 = load ptr, ptr %8, align 8
  %44 = getelementptr inbounds nuw %struct.netmon_dump_t, ptr %43, i32 0, i32 0
  %45 = load i8, ptr %44, align 8, !range !8, !noundef !9
  %46 = trunc i8 %45 to i1
  br i1 %46, label %47, label %56

47:                                               ; preds = %38
  store ptr @netmon_2_x_magic, ptr %11, align 8
  store i64 4, ptr %12, align 8
  %48 = getelementptr inbounds nuw %struct.netmon_hdr, ptr %10, i32 0, i32 1
  store i8 2, ptr %48, align 1
  %49 = load ptr, ptr %5, align 8
  %50 = getelementptr inbounds nuw %struct.wtap_dumper, ptr %49, i32 0, i32 3
  %51 = load i32, ptr %50, align 8
  %52 = icmp eq i32 %51, -1
  %53 = select i1 %52, i32 1, i32 0
  %54 = trunc i32 %53 to i8
  %55 = getelementptr inbounds nuw %struct.netmon_hdr, ptr %10, i32 0, i32 0
  store i8 %54, ptr %55, align 4
  br label %59

56:                                               ; preds = %38
  store ptr @netmon_1_x_magic, ptr %11, align 8
  store i64 4, ptr %12, align 8
  %57 = getelementptr inbounds nuw %struct.netmon_hdr, ptr %10, i32 0, i32 1
  store i8 1, ptr %57, align 1
  %58 = getelementptr inbounds nuw %struct.netmon_hdr, ptr %10, i32 0, i32 0
  store i8 1, ptr %58, align 4
  br label %59

59:                                               ; preds = %56, %47
  %60 = load ptr, ptr %5, align 8
  %61 = load ptr, ptr %11, align 8
  %62 = load i64, ptr %12, align 8
  %63 = load ptr, ptr %6, align 8
  %64 = call zeroext i1 @wtap_dump_file_write(ptr noundef %60, ptr noundef %61, i64 noundef %62, ptr noundef %63)
  br i1 %64, label %66, label %65

65:                                               ; preds = %59
  store i1 false, ptr %4, align 1
  store i32 1, ptr %15, align 4
  br label %162

66:                                               ; preds = %59
  %67 = load ptr, ptr %5, align 8
  %68 = getelementptr inbounds nuw %struct.wtap_dumper, ptr %67, i32 0, i32 3
  %69 = load i32, ptr %68, align 8
  %70 = icmp eq i32 %69, -1
  br i1 %70, label %71, label %73

71:                                               ; preds = %66
  %72 = getelementptr inbounds nuw %struct.netmon_hdr, ptr %10, i32 0, i32 2
  store i16 1, ptr %72, align 2
  br label %82

73:                                               ; preds = %66
  %74 = load ptr, ptr %5, align 8
  %75 = getelementptr inbounds nuw %struct.wtap_dumper, ptr %74, i32 0, i32 3
  %76 = load i32, ptr %75, align 8
  %77 = sext i32 %76 to i64
  %78 = getelementptr [14 x i32], ptr @wtap_encap, i64 0, i64 %77
  %79 = load i32, ptr %78, align 4
  %80 = trunc i32 %79 to i16
  %81 = getelementptr inbounds nuw %struct.netmon_hdr, ptr %10, i32 0, i32 2
  store i16 %80, ptr %81, align 2
  br label %82

82:                                               ; preds = %73, %71
  %83 = load ptr, ptr %8, align 8
  %84 = getelementptr inbounds nuw %struct.netmon_dump_t, ptr %83, i32 0, i32 2
  %85 = getelementptr inbounds nuw %struct.nstime_t, ptr %84, i32 0, i32 0
  %86 = call ptr @localtime(ptr noundef %85) #13
  store ptr %86, ptr %13, align 8
  %87 = load ptr, ptr %13, align 8
  %88 = icmp ne ptr %87, null
  br i1 %88, label %89, label %127

89:                                               ; preds = %82
  %90 = load ptr, ptr %13, align 8
  %91 = getelementptr inbounds nuw %struct.tm, ptr %90, i32 0, i32 5
  %92 = load i32, ptr %91, align 4
  %93 = add i32 1900, %92
  %94 = trunc i32 %93 to i16
  %95 = getelementptr inbounds nuw %struct.netmon_hdr, ptr %10, i32 0, i32 3
  store i16 %94, ptr %95, align 4
  %96 = load ptr, ptr %13, align 8
  %97 = getelementptr inbounds nuw %struct.tm, ptr %96, i32 0, i32 4
  %98 = load i32, ptr %97, align 8
  %99 = add i32 %98, 1
  %100 = trunc i32 %99 to i16
  %101 = getelementptr inbounds nuw %struct.netmon_hdr, ptr %10, i32 0, i32 4
  store i16 %100, ptr %101, align 2
  %102 = load ptr, ptr %13, align 8
  %103 = getelementptr inbounds nuw %struct.tm, ptr %102, i32 0, i32 6
  %104 = load i32, ptr %103, align 8
  %105 = trunc i32 %104 to i16
  %106 = getelementptr inbounds nuw %struct.netmon_hdr, ptr %10, i32 0, i32 5
  store i16 %105, ptr %106, align 4
  %107 = load ptr, ptr %13, align 8
  %108 = getelementptr inbounds nuw %struct.tm, ptr %107, i32 0, i32 3
  %109 = load i32, ptr %108, align 4
  %110 = trunc i32 %109 to i16
  %111 = getelementptr inbounds nuw %struct.netmon_hdr, ptr %10, i32 0, i32 6
  store i16 %110, ptr %111, align 2
  %112 = load ptr, ptr %13, align 8
  %113 = getelementptr inbounds nuw %struct.tm, ptr %112, i32 0, i32 2
  %114 = load i32, ptr %113, align 8
  %115 = trunc i32 %114 to i16
  %116 = getelementptr inbounds nuw %struct.netmon_hdr, ptr %10, i32 0, i32 7
  store i16 %115, ptr %116, align 4
  %117 = load ptr, ptr %13, align 8
  %118 = getelementptr inbounds nuw %struct.tm, ptr %117, i32 0, i32 1
  %119 = load i32, ptr %118, align 4
  %120 = trunc i32 %119 to i16
  %121 = getelementptr inbounds nuw %struct.netmon_hdr, ptr %10, i32 0, i32 8
  store i16 %120, ptr %121, align 2
  %122 = load ptr, ptr %13, align 8
  %123 = getelementptr inbounds nuw %struct.tm, ptr %122, i32 0, i32 0
  %124 = load i32, ptr %123, align 8
  %125 = trunc i32 %124 to i16
  %126 = getelementptr inbounds nuw %struct.netmon_hdr, ptr %10, i32 0, i32 9
  store i16 %125, ptr %126, align 4
  br label %135

127:                                              ; preds = %82
  %128 = getelementptr inbounds nuw %struct.netmon_hdr, ptr %10, i32 0, i32 3
  store i16 1900, ptr %128, align 4
  %129 = getelementptr inbounds nuw %struct.netmon_hdr, ptr %10, i32 0, i32 4
  store i16 1, ptr %129, align 2
  %130 = getelementptr inbounds nuw %struct.netmon_hdr, ptr %10, i32 0, i32 5
  store i16 0, ptr %130, align 4
  %131 = getelementptr inbounds nuw %struct.netmon_hdr, ptr %10, i32 0, i32 6
  store i16 0, ptr %131, align 2
  %132 = getelementptr inbounds nuw %struct.netmon_hdr, ptr %10, i32 0, i32 7
  store i16 0, ptr %132, align 4
  %133 = getelementptr inbounds nuw %struct.netmon_hdr, ptr %10, i32 0, i32 8
  store i16 0, ptr %133, align 2
  %134 = getelementptr inbounds nuw %struct.netmon_hdr, ptr %10, i32 0, i32 9
  store i16 0, ptr %134, align 4
  br label %135

135:                                              ; preds = %127, %89
  %136 = load ptr, ptr %8, align 8
  %137 = getelementptr inbounds nuw %struct.netmon_dump_t, ptr %136, i32 0, i32 2
  %138 = getelementptr inbounds nuw %struct.nstime_t, ptr %137, i32 0, i32 1
  %139 = load i32, ptr %138, align 8
  %140 = sdiv i32 %139, 1000000
  %141 = trunc i32 %140 to i16
  %142 = getelementptr inbounds nuw %struct.netmon_hdr, ptr %10, i32 0, i32 10
  store i16 %141, ptr %142, align 2
  %143 = load ptr, ptr %8, align 8
  %144 = getelementptr inbounds nuw %struct.netmon_dump_t, ptr %143, i32 0, i32 3
  %145 = load i32, ptr %144, align 8
  %146 = getelementptr inbounds nuw %struct.netmon_hdr, ptr %10, i32 0, i32 11
  store i32 %145, ptr %146, align 4
  %147 = load ptr, ptr %8, align 8
  %148 = getelementptr inbounds nuw %struct.netmon_dump_t, ptr %147, i32 0, i32 5
  %149 = load i32, ptr %148, align 8
  %150 = zext i32 %149 to i64
  %151 = mul i64 %150, 4
  %152 = trunc i64 %151 to i32
  %153 = getelementptr inbounds nuw %struct.netmon_hdr, ptr %10, i32 0, i32 12
  store i32 %152, ptr %153, align 4
  %154 = load ptr, ptr %5, align 8
  %155 = load ptr, ptr %6, align 8
  %156 = call zeroext i1 @wtap_dump_file_write(ptr noundef %154, ptr noundef %10, i64 noundef 60, ptr noundef %155)
  br i1 %156, label %158, label %157

157:                                              ; preds = %135
  store i1 false, ptr %4, align 1
  store i32 1, ptr %15, align 4
  br label %162

158:                                              ; preds = %135
  %159 = load i64, ptr %14, align 8
  %160 = load ptr, ptr %5, align 8
  %161 = getelementptr inbounds nuw %struct.wtap_dumper, ptr %160, i32 0, i32 6
  store i64 %159, ptr %161, align 8
  store i1 true, ptr %4, align 1
  store i32 1, ptr %15, align 4
  br label %162

162:                                              ; preds = %158, %157, %65, %37, %31
  call void @llvm.lifetime.end.p0(i64 8, ptr %14) #13
  call void @llvm.lifetime.end.p0(i64 8, ptr %13) #13
  call void @llvm.lifetime.end.p0(i64 8, ptr %12) #13
  call void @llvm.lifetime.end.p0(i64 8, ptr %11) #13
  call void @llvm.lifetime.end.p0(i64 60, ptr %10) #13
  call void @llvm.lifetime.end.p0(i64 8, ptr %9) #13
  call void @llvm.lifetime.end.p0(i64 8, ptr %8) #13
  %163 = load i1, ptr %4, align 1
  ret i1 %163
}