; Function Attrs: null_pointer_is_valid sspstrong uwtable
define internal noundef zeroext i1 @netmon_dump_finish(ptr noundef %0, ptr noundef %1, ptr readnone captures(none) %2) #0 {
  %4 = alloca %struct.netmon_hdr, align 4
  %5 = getelementptr inbounds nuw i8, ptr %0, i64 40
  %6 = load ptr, ptr %5, align 8
  call void @llvm.lifetime.start.p0(i64 60, ptr nonnull %4) #12
  %7 = getelementptr inbounds nuw i8, ptr %6, i64 40
  %8 = load i32, ptr %7, align 8
  %9 = zext i32 %8 to i64
  %10 = shl nuw nsw i64 %9, 2
  %11 = getelementptr inbounds nuw i8, ptr %6, i64 32
  %12 = load ptr, ptr %11, align 8
  %13 = tail call zeroext i1 @wtap_dump_file_write(ptr noundef %0, ptr noundef %12, i64 noundef %10, ptr noundef %1)
  br i1 %13, label %14, label %92

14:                                               ; preds = %3
  %15 = tail call i64 @wtap_dump_file_seek(ptr noundef %0, i64 noundef 0, i32 noundef 0, ptr noundef %1)
  %16 = icmp eq i64 %15, -1
  br i1 %16, label %92, label %17

17:                                               ; preds = %14
  %18 = getelementptr inbounds nuw i8, ptr %0, i64 32
  %19 = load i64, ptr %18, align 8
  %20 = getelementptr inbounds nuw i8, ptr %4, i64 4
  call void @llvm.memset.p0.i64(ptr noundef nonnull align 4 dereferenceable(60) %20, i8 noundef 0, i64 noundef 56, i1 noundef false) #12
  %21 = load i8, ptr %6, align 8, !range !11, !noundef !12
  %22 = trunc nuw i8 %21 to i1
  br i1 %22, label %23, label %28

23:                                               ; preds = %17
  %24 = getelementptr inbounds nuw i8, ptr %0, i64 16
  %25 = load i32, ptr %24, align 8
  %26 = icmp eq i32 %25, -1
  %27 = zext i1 %26 to i8
  br label %28

28:                                               ; preds = %17, %23
  %.sink = phi i8 [ 2, %23 ], [ 1, %17 ]
  %storemerge = phi i8 [ %27, %23 ], [ 1, %17 ]
  %.033 = phi ptr [ @netmon_2_x_magic, %23 ], [ @netmon_1_x_magic, %17 ]
  %29 = getelementptr inbounds nuw i8, ptr %4, i64 1
  store i8 %.sink, ptr %29, align 1
  store i8 %storemerge, ptr %4, align 4
  %30 = tail call zeroext i1 @wtap_dump_file_write(ptr noundef %0, ptr noundef nonnull %.033, i64 noundef 4, ptr noundef %1)
  br i1 %30, label %31, label %92

31:                                               ; preds = %28
  %32 = getelementptr inbounds nuw i8, ptr %0, i64 16
  %33 = load i32, ptr %32, align 8
  %34 = icmp eq i32 %33, -1
  br i1 %34, label %40, label %35

35:                                               ; preds = %31
  %36 = sext i32 %33 to i64
  %37 = getelementptr [14 x i32], ptr @wtap_encap, i64 0, i64 %36
  %38 = load i32, ptr %37, align 4
  %39 = trunc i32 %38 to i16
  br label %40

40:                                               ; preds = %31, %35
  %.sink37 = phi i16 [ %39, %35 ], [ 1, %31 ]
  %41 = getelementptr inbounds nuw i8, ptr %4, i64 2
  store i16 %.sink37, ptr %41, align 2
  %42 = getelementptr inbounds nuw i8, ptr %6, i64 8
  %43 = tail call ptr @localtime(ptr noundef nonnull %42) #12
  %.not = icmp eq ptr %43, null
  br i1 %.not, label %73, label %44

44:                                               ; preds = %40
  %45 = getelementptr inbounds nuw i8, ptr %43, i64 20
  %46 = load i32, ptr %45, align 4
  %47 = trunc i32 %46 to i16
  %48 = add i16 %47, 1900
  %49 = getelementptr inbounds nuw i8, ptr %4, i64 4
  store i16 %48, ptr %49, align 4
  %50 = getelementptr inbounds nuw i8, ptr %43, i64 16
  %51 = load i32, ptr %50, align 8
  %52 = trunc i32 %51 to i16
  %53 = add i16 %52, 1
  %54 = getelementptr inbounds nuw i8, ptr %4, i64 6
  store i16 %53, ptr %54, align 2
  %55 = getelementptr inbounds nuw i8, ptr %43, i64 24
  %56 = load i32, ptr %55, align 8
  %57 = trunc i32 %56 to i16
  %58 = getelementptr inbounds nuw i8, ptr %4, i64 8
  store i16 %57, ptr %58, align 4
  %59 = getelementptr inbounds nuw i8, ptr %43, i64 12
  %60 = load i32, ptr %59, align 4
  %61 = trunc i32 %60 to i16
  %62 = getelementptr inbounds nuw i8, ptr %4, i64 10
  store i16 %61, ptr %62, align 2
  %63 = getelementptr inbounds nuw i8, ptr %43, i64 8
  %64 = load i32, ptr %63, align 8
  %65 = trunc i32 %64 to i16
  %66 = getelementptr inbounds nuw i8, ptr %4, i64 12
  store i16 %65, ptr %66, align 4
  %67 = getelementptr inbounds nuw i8, ptr %43, i64 4
  %68 = load i32, ptr %67, align 4
  %69 = trunc i32 %68 to i16
  %70 = getelementptr inbounds nuw i8, ptr %4, i64 14
  store i16 %69, ptr %70, align 2
  %71 = load i32, ptr %43, align 8
  %72 = trunc i32 %71 to i16
  br label %77

73:                                               ; preds = %40
  %74 = getelementptr inbounds nuw i8, ptr %4, i64 4
  store i16 1900, ptr %74, align 4
  %75 = getelementptr inbounds nuw i8, ptr %4, i64 6
  store i16 1, ptr %75, align 2
  %76 = getelementptr inbounds nuw i8, ptr %4, i64 8
  store i64 0, ptr %76, align 4
  br label %77

77:                                               ; preds = %73, %44
  %.sink38 = phi i16 [ 0, %73 ], [ %72, %44 ]
  %78 = getelementptr inbounds nuw i8, ptr %4, i64 16
  store i16 %.sink38, ptr %78, align 4
  %79 = getelementptr inbounds nuw i8, ptr %6, i64 16
  %80 = load i32, ptr %79, align 8
  %81 = sdiv i32 %80, 1000000
  %82 = trunc nsw i32 %81 to i16
  %83 = getelementptr inbounds nuw i8, ptr %4, i64 18
  store i16 %82, ptr %83, align 2
  %84 = getelementptr inbounds nuw i8, ptr %6, i64 24
  %85 = load i32, ptr %84, align 8
  %86 = getelementptr inbounds nuw i8, ptr %4, i64 20
  store i32 %85, ptr %86, align 4
  %87 = load i32, ptr %7, align 8
  %88 = shl i32 %87, 2
  %89 = getelementptr inbounds nuw i8, ptr %4, i64 24
  store i32 %88, ptr %89, align 4
  %90 = call zeroext i1 @wtap_dump_file_write(ptr noundef %0, ptr noundef nonnull %4, i64 noundef 60, ptr noundef %1)
  br i1 %90, label %91, label %92

91:                                               ; preds = %77
  store i64 %19, ptr %18, align 8
  br label %92

92:                                               ; preds = %77, %28, %14, %3, %91
  %.0 = phi i1 [ true, %91 ], [ false, %3 ], [ false, %14 ], [ false, %28 ], [ false, %77 ]
  call void @llvm.lifetime.end.p0(i64 60, ptr nonnull %4) #12
  ret i1 %.0
}